target datalayout = "e-m:e-p270:32:32-p271:32:32-p272:64:64-i64:64-i128:128-f80:128-n8:16:32:64-S128"
target triple = "x86_64-pc-linux-gnu"

%struct.ImRect = type { %struct.ImVec2, %struct.ImVec2 }
%struct.ImVec2 = type { float, float }
%struct.ImGuiTextBuffer = type { %struct.ImVector.28 }
%struct.ImVector.28 = type { i32, i32, ptr }
%struct.ImGuiTableInstanceData = type { i32, float, float, float, i32, i32 }
%struct.ImGuiTable = type <{ i32, i32, ptr, ptr, %struct.ImSpan, %struct.ImSpan.41, %struct.ImSpan.42, ptr, ptr, ptr, i32, i32, i32, i32, i32, i32, i16, i16, float, float, float, float, float, float, i32, i32, [2 x i32], i32, i32, float, float, float, float, float, float, float, float, float, float, float, float, float, float, float, float, float, %struct.ImRect, %struct.ImRect, %struct.ImRect, %struct.ImRect, %struct.ImRect, %struct.ImRect, %struct.ImRect, %struct.ImRect, %struct.ImRect, ptr, ptr, %struct.ImGuiTextBuffer, ptr, %struct.ImGuiTableInstanceData, %struct.ImVector.43, %struct.ImGuiTableColumnSortSpecs, [4 x i8], %struct.ImVector.44, %struct.ImGuiTableSortSpecs, i16, i16, i16, i16, i16, i16, i16, i16, i16, i16, i16, i16, i16, i16, i16, i16, i16, i16, i16, i16, i16, i16, i16, i16, i16, i16, i16, i8, i8, i8, i8, i8, i8, i8, i8, i8, i8, i8, i8, i8, i8, i8, i8, i8, i8, i8, i8, i8, [5 x i8] }>
%struct.ImSpan = type { ptr, ptr }
%struct.ImSpan.41 = type { ptr, ptr }
%struct.ImSpan.42 = type { ptr, ptr }
%struct.ImVector.43 = type { i32, i32, ptr }
%struct.ImGuiTableColumnSortSpecs = type <{ i32, i16, i16, i8, [3 x i8] }>
%struct.ImVector.44 = type { i32, i32, ptr }
%struct.ImGuiTableSortSpecs = type <{ ptr, i32, i8, [3 x i8] }>
%struct.ImSpanAllocator = type { ptr, i32, i32, [6 x i32], [6 x i32] }

; Function Attrs: inlinehint mustprogress nounwind uwtable
define linkonce_odr void @_ZN6ImSpanI18ImGuiTableCellDataE3setEPS0_S2_(ptr noundef nonnull align 8 dereferenceable(16) %0, ptr noundef %1, ptr noundef %2) #4 comdat align 2 {
  %4 = alloca ptr, align 8
  %5 = alloca ptr, align 8
  %6 = alloca ptr, align 8
  store ptr %0, ptr %4, align 8, !tbaa !404
  store ptr %1, ptr %5, align 8, !tbaa !516
  store ptr %2, ptr %6, align 8, !tbaa !516
  %7 = load ptr, ptr %4, align 8
  %8 = load ptr, ptr %5, align 8, !tbaa !516
  %9 = getelementptr inbounds nuw %struct.ImSpan.42, ptr %7, i32 0, i32 0
  store ptr %8, ptr %9, align 8, !tbaa !571
  %10 = load ptr, ptr %6, align 8, !tbaa !516
  %11 = getelementptr inbounds nuw %struct.ImSpan.42, ptr %7, i32 0, i32 1
  store ptr %10, ptr %11, align 8, !tbaa !743
  ret void
}

; Function Attrs: inlinehint mustprogress nounwind uwtable
define linkonce_odr void @_ZN6ImSpanIsE3setEPsS1_(ptr noundef nonnull align 8 dereferenceable(16) %0, ptr noundef %1, ptr noundef %2) #4 comdat align 2 {
  %4 = alloca ptr, align 8
  %5 = alloca ptr, align 8
  %6 = alloca ptr, align 8
  store ptr %0, ptr %4, align 8, !tbaa !363
  store ptr %1, ptr %5, align 8, !tbaa !366
  store ptr %2, ptr %6, align 8, !tbaa !366
  %7 = load ptr, ptr %4, align 8
  %8 = load ptr, ptr %5, align 8, !tbaa !366
  %9 = getelementptr inbounds nuw %struct.ImSpan.41, ptr %7, i32 0, i32 0
  store ptr %8, ptr %9, align 8, !tbaa !365
  %10 = load ptr, ptr %6, align 8, !tbaa !366
  %11 = getelementptr inbounds nuw %struct.ImSpan.41, ptr %7, i32 0, i32 1
  store ptr %10, ptr %11, align 8, !tbaa !742
  ret void
}

; Function Attrs: inlinehint mustprogress nounwind uwtable
define linkonce_odr void @_ZN6ImSpanI16ImGuiTableColumnE3setEPS0_S2_(ptr noundef nonnull align 8 dereferenceable(16) %0, ptr noundef %1, ptr noundef %2) #4 comdat align 2 {
  %4 = alloca ptr, align 8
  %5 = alloca ptr, align 8
  %6 = alloca ptr, align 8
  store ptr %0, ptr %4, align 8, !tbaa !345
  store ptr %1, ptr %5, align 8, !tbaa !265
  store ptr %2, ptr %6, align 8, !tbaa !265
  %7 = load ptr, ptr %4, align 8
  %8 = load ptr, ptr %5, align 8, !tbaa !265
  %9 = getelementptr inbounds nuw %struct.ImSpan, ptr %7, i32 0, i32 0
  store ptr %8, ptr %9, align 8, !tbaa !348
  %10 = load ptr, ptr %6, align 8, !tbaa !265
  %11 = getelementptr inbounds nuw %struct.ImSpan, ptr %7, i32 0, i32 1
  store ptr %10, ptr %11, align 8, !tbaa !347
  ret void
}

; Function Attrs: inlinehint mustprogress nounwind uwtable
define linkonce_odr noundef ptr @_ZN15ImSpanAllocatorILi6EE13GetSpanPtrEndEi(ptr noundef nonnull align 8 dereferenceable(64) %0, i32 noundef %1) #4 comdat align 2 {
  %3 = alloca ptr, align 8
  %4 = alloca i32, align 4
  store ptr %0, ptr %3, align 8, !tbaa !396
  store i32 %1, ptr %4, align 4, !tbaa !3
  %5 = load ptr, ptr %3, align 8
  %6 = getelementptr inbounds nuw %struct.ImSpanAllocator, ptr %5, i32 0, i32 0
  %7 = load ptr, ptr %6, align 8, !tbaa !403
  %8 = getelementptr inbounds nuw %struct.ImSpanAllocator, ptr %5, i32 0, i32 3
  %9 = load i32, ptr %4, align 4, !tbaa !3
  %10 = sext i32 %9 to i64
  %11 = getelementptr inbounds [6 x i32], ptr %8, i64 0, i64 %10
  %12 = load i32, ptr %11, align 4, !tbaa !3
  %13 = sext i32 %12 to i64
  %14 = getelementptr inbounds i8, ptr %7, i64 %13
  %15 = getelementptr inbounds nuw %struct.ImSpanAllocator, ptr %5, i32 0, i32 4
  %16 = load i32, ptr %4, align 4, !tbaa !3
  %17 = sext i32 %16 to i64
  %18 = getelementptr inbounds [6 x i32], ptr %15, i64 0, i64 %17
  %19 = load i32, ptr %18, align 4, !tbaa !3
  %20 = sext i32 %19 to i64
  %21 = getelementptr inbounds i8, ptr %14, i64 %20
  ret ptr %21
}

; Function Attrs: inlinehint mustprogress nounwind uwtable
define linkonce_odr noundef ptr @_ZN15ImSpanAllocatorILi6EE15GetSpanPtrBeginEi(ptr noundef nonnull align 8 dereferenceable(64) %0, i32 noundef %1) #4 comdat align 2 {
  %3 = alloca ptr, align 8
  %4 = alloca i32, align 4
  store ptr %0, ptr %3, align 8, !tbaa !396
  store i32 %1, ptr %4, align 4, !tbaa !3
  %5 = load ptr, ptr %3, align 8
  %6 = getelementptr inbounds nuw %struct.ImSpanAllocator, ptr %5, i32 0, i32 0
  %7 = load ptr, ptr %6, align 8, !tbaa !403
  %8 = getelementptr inbounds nuw %struct.ImSpanAllocator, ptr %5, i32 0, i32 3
  %9 = load i32, ptr %4, align 4, !tbaa !3
  %10 = sext i32 %9 to i64
  %11 = getelementptr inbounds [6 x i32], ptr %8, i64 0, i64 %10
  %12 = load i32, ptr %11, align 4, !tbaa !3
  %13 = sext i32 %12 to i64
  %14 = getelementptr inbounds i8, ptr %7, i64 %13
  ret ptr %14
}

; Function Attrs: inlinehint mustprogress uwtable
define linkonce_odr void @_ZN15ImSpanAllocatorILi6EE7GetSpanI18ImGuiTableCellDataEEviP6ImSpanIT_E(ptr noundef nonnull align 8 dereferenceable(64) %0, i32 noundef %1, ptr noundef %2) #9 comdat align 2 {
  %4 = alloca ptr, align 8
  %5 = alloca i32, align 4
  %6 = alloca ptr, align 8
  store ptr %0, ptr %4, align 8, !tbaa !396
  store i32 %1, ptr %5, align 4, !tbaa !3
  store ptr %2, ptr %6, align 8, !tbaa !404
  %7 = load ptr, ptr %4, align 8
  %8 = load ptr, ptr %6, align 8, !tbaa !404
  %9 = load i32, ptr %5, align 4, !tbaa !3
  %10 = call noundef ptr @_ZN15ImSpanAllocatorILi6EE15GetSpanPtrBeginEi(ptr noundef nonnull align 8 dereferenceable(64) %7, i32 noundef %9)
  %11 = load i32, ptr %5, align 4, !tbaa !3
  %12 = call noundef ptr @_ZN15ImSpanAllocatorILi6EE13GetSpanPtrEndEi(ptr noundef nonnull align 8 dereferenceable(64) %7, i32 noundef %11)
  call void @_ZN6ImSpanI18ImGuiTableCellDataE3setEPS0_S2_(ptr noundef nonnull align 8 dereferenceable(16) %8, ptr noundef %10, ptr noundef %12)
  ret void
}

; Function Attrs: inlinehint mustprogress uwtable
define linkonce_odr void @_ZN15ImSpanAllocatorILi6EE7GetSpanIsEEviP6ImSpanIT_E(ptr noundef nonnull align 8 dereferenceable(64) %0, i32 noundef %1, ptr noundef %2) #9 comdat align 2 {
  %4 = alloca ptr, align 8
  %5 = alloca i32, align 4
  %6 = alloca ptr, align 8
  store ptr %0, ptr %4, align 8, !tbaa !396
  store i32 %1, ptr %5, align 4, !tbaa !3
  store ptr %2, ptr %6, align 8, !tbaa !363
  %7 = load ptr, ptr %4, align 8
  %8 = load ptr, ptr %6, align 8, !tbaa !363
  %9 = load i32, ptr %5, align 4, !tbaa !3
  %10 = call noundef ptr @_ZN15ImSpanAllocatorILi6EE15GetSpanPtrBeginEi(ptr noundef nonnull align 8 dereferenceable(64) %7, i32 noundef %9)
  %11 = load i32, ptr %5, align 4, !tbaa !3
  %12 = call noundef ptr @_ZN15ImSpanAllocatorILi6EE13GetSpanPtrEndEi(ptr noundef nonnull align 8 dereferenceable(64) %7, i32 noundef %11)
  call void @_ZN6ImSpanIsE3setEPsS1_(ptr noundef nonnull align 8 dereferenceable(16) %8, ptr noundef %10, ptr noundef %12)
  ret void
}

; Function Attrs: inlinehint mustprogress uwtable
define linkonce_odr void @_ZN15ImSpanAllocatorILi6EE7GetSpanI16ImGuiTableColumnEEviP6ImSpanIT_E(ptr noundef nonnull align 8 dereferenceable(64) %0, i32 noundef %1, ptr noundef %2) #9 comdat align 2 {
  %4 = alloca ptr, align 8
  %5 = alloca i32, align 4
  %6 = alloca ptr, align 8
  store ptr %0, ptr %4, align 8, !tbaa !396
  store i32 %1, ptr %5, align 4, !tbaa !3
  store ptr %2, ptr %6, align 8, !tbaa !345
  %7 = load ptr, ptr %4, align 8
  %8 = load ptr, ptr %6, align 8, !tbaa !345
  %9 = load i32, ptr %5, align 4, !tbaa !3
  %10 = call noundef ptr @_ZN15ImSpanAllocatorILi6EE15GetSpanPtrBeginEi(ptr noundef nonnull align 8 dereferenceable(64) %7, i32 noundef %9)
  %11 = load i32, ptr %5, align 4, !tbaa !3
  %12 = call noundef ptr @_ZN15ImSpanAllocatorILi6EE13GetSpanPtrEndEi(ptr noundef nonnull align 8 dereferenceable(64) %7, i32 noundef %11)
  call void @_ZN6ImSpanI16ImGuiTableColumnE3setEPS0_S2_(ptr noundef nonnull align 8 dereferenceable(16) %8, ptr noundef %10, ptr noundef %12)
  ret void
}

; Function Attrs: inlinehint mustprogress nounwind uwtable
define linkonce_odr void @_ZN15ImSpanAllocatorILi6EE15SetArenaBasePtrEPv(ptr noundef nonnull align 8 dereferenceable(64) %0, ptr noundef %1) #4 comdat align 2 {
  %3 = alloca ptr, align 8
  %4 = alloca ptr, align 8
  store ptr %0, ptr %3, align 8, !tbaa !396
  store ptr %1, ptr %4, align 8, !tbaa !266
  %5 = load ptr, ptr %3, align 8
  %6 = load ptr, ptr %4, align 8, !tbaa !266
  %7 = getelementptr inbounds nuw %struct.ImSpanAllocator, ptr %5, i32 0, i32 0
  store ptr %6, ptr %7, align 8, !tbaa !403
  ret void
}

; Function Attrs: inlinehint mustprogress nounwind uwtable
define linkonce_odr noundef i32 @_ZN15ImSpanAllocatorILi6EE19GetArenaSizeInBytesEv(ptr noundef nonnull align 8 dereferenceable(64) %0) #4 comdat align 2 {
  %2 = alloca ptr, align 8
  store ptr %0, ptr %2, align 8, !tbaa !396
  %3 = load ptr, ptr %2, align 8
  %4 = getelementptr inbounds nuw %struct.ImSpanAllocator, ptr %3, i32 0, i32 1
  %5 = load i32, ptr %4, align 8, !tbaa !400
  ret i32 %5
}

; Function Attrs: inlinehint mustprogress nounwind uwtable
define linkonce_odr void @_ZN15ImSpanAllocatorILi6EE7ReserveEimi(ptr noundef nonnull align 8 dereferenceable(64) %0, i32 noundef %1, i64 noundef %2, i32 noundef %3) #4 comdat align 2 {
  %5 = alloca ptr, align 8
  %6 = alloca i32, align 4
  %7 = alloca i64, align 8
  %8 = alloca i32, align 4
  store ptr %0, ptr %5, align 8, !tbaa !396
  store i32 %1, ptr %6, align 4, !tbaa !3
  store i64 %2, ptr %7, align 8, !tbaa !398
  store i32 %3, ptr %8, align 4, !tbaa !3
  %9 = load ptr, ptr %5, align 8
  %10 = getelementptr inbounds nuw %struct.ImSpanAllocator, ptr %9, i32 0, i32 1
  %11 = load i32, ptr %10, align 8, !tbaa !400
  %12 = load i32, ptr %8, align 4, !tbaa !3
  %13 = sub nsw i32 %12, 1
  %14 = add nsw i32 %11, %13
  %15 = load i32, ptr %8, align 4, !tbaa !3
  %16 = sub nsw i32 %15, 1
  %17 = xor i32 %16, -1
  %18 = and i32 %14, %17
  %19 = getelementptr inbounds nuw %struct.ImSpanAllocator, ptr %9, i32 0, i32 1
  store i32 %18, ptr %19, align 8, !tbaa !400
  %20 = getelementptr inbounds nuw %struct.ImSpanAllocator, ptr %9, i32 0, i32 1
  %21 = load i32, ptr %20, align 8, !tbaa !400
  %22 = getelementptr inbounds nuw %struct.ImSpanAllocator, ptr %9, i32 0, i32 3
  %23 = load i32, ptr %6, align 4, !tbaa !3
  %24 = sext i32 %23 to i64
  %25 = getelementptr inbounds [6 x i32], ptr %22, i64 0, i64 %24
  store i32 %21, ptr %25, align 4, !tbaa !3
  %26 = load i64, ptr %7, align 8, !tbaa !398
  %27 = trunc i64 %26 to i32
  %28 = getelementptr inbounds nuw %struct.ImSpanAllocator, ptr %9, i32 0, i32 4
  %29 = load i32, ptr %6, align 4, !tbaa !3
  %30 = sext i32 %29 to i64
  %31 = getelementptr inbounds [6 x i32], ptr %28, i64 0, i64 %30
  store i32 %27, ptr %31, align 4, !tbaa !3
  %32 = getelementptr inbounds nuw %struct.ImSpanAllocator, ptr %9, i32 0, i32 2
  %33 = load i32, ptr %32, align 4, !tbaa !402
  %34 = add nsw i32 %33, 1
  store i32 %34, ptr %32, align 4, !tbaa !402
  %35 = load i64, ptr %7, align 8, !tbaa !398
  %36 = trunc i64 %35 to i32
  %37 = getelementptr inbounds nuw %struct.ImSpanAllocator, ptr %9, i32 0, i32 1
  %38 = load i32, ptr %37, align 8, !tbaa !400
  %39 = add nsw i32 %38, %36
  store i32 %39, ptr %37, align 8, !tbaa !400
  ret void
}

; Function Attrs: mustprogress nounwind uwtable
define linkonce_odr void @_ZN15ImSpanAllocatorILi6EEC2Ev(ptr noundef nonnull align 8 dereferenceable(64) %0) unnamed_addr #7 comdat align 2 {
  %2 = alloca ptr, align 8
  store ptr %0, ptr %2, align 8, !tbaa !396
  %3 = load ptr, ptr %2, align 8
  call void @llvm.memset.p0.i64(ptr align 8 %3, i8 0, i64 64, i1 false)
  ret void
}

; Function Attrs: inlinehint mustprogress nounwind uwtable
define linkonce_odr noundef i64 @_Z31ImBitArrayGetStorageSizeInBytesi(i32 noundef %0) #4 comdat {
  %2 = alloca i32, align 4
  store i32 %0, ptr %2, align 4, !tbaa !3
  %3 = load i32, ptr %2, align 4, !tbaa !3
  %4 = add nsw i32 %3, 31
  %5 = ashr i32 %4, 5
  %6 = sext i32 %5 to i64
  %7 = shl i64 %6, 2
  ret i64 %7
}

; Function Attrs: mustprogress uwtable
define void @_ZN5ImGui20TableBeginInitMemoryEP10ImGuiTablei(ptr noundef %0, i32 noundef %1) #0 {
  %3 = alloca ptr, align 8
  %4 = alloca i32, align 4
  %5 = alloca i32, align 4
  %6 = alloca %struct.ImSpanAllocator, align 8
  %7 = alloca i32, align 4
  store ptr %0, ptr %3, align 8, !tbaa !167
  store i32 %1, ptr %4, align 4, !tbaa !3
  call void @llvm.lifetime.start.p0(i64 4, ptr %5) #8
  %8 = load i32, ptr %4, align 4, !tbaa !3
  %9 = call noundef i64 @_Z31ImBitArrayGetStorageSizeInBytesi(i32 noundef %8)
  %10 = trunc i64 %9 to i32
  store i32 %10, ptr %5, align 4, !tbaa !3
  call void @llvm.lifetime.start.p0(i64 64, ptr %6) #8
  call void @_ZN15ImSpanAllocatorILi6EEC2Ev(ptr noundef nonnull align 8 dereferenceable(64) %6)
  %11 = load i32, ptr %4, align 4, !tbaa !3
  %12 = sext i32 %11 to i64
  %13 = mul i64 %12, 116
  call void @_ZN15ImSpanAllocatorILi6EE7ReserveEimi(ptr noundef nonnull align 8 dereferenceable(64) %6, i32 noundef 0, i64 noundef %13, i32 noundef 4)
  %14 = load i32, ptr %4, align 4, !tbaa !3
  %15 = sext i32 %14 to i64
  %16 = mul i64 %15, 2
  call void @_ZN15ImSpanAllocatorILi6EE7ReserveEimi(ptr noundef nonnull align 8 dereferenceable(64) %6, i32 noundef 1, i64 noundef %16, i32 noundef 4)
  %17 = load i32, ptr %4, align 4, !tbaa !3
  %18 = sext i32 %17 to i64
  %19 = mul i64 %18, 8
  call void @_ZN15ImSpanAllocatorILi6EE7ReserveEimi(ptr noundef nonnull align 8 dereferenceable(64) %6, i32 noundef 2, i64 noundef %19, i32 noundef 4)
  call void @llvm.lifetime.start.p0(i64 4, ptr %7) #8
  store i32 3, ptr %7, align 4, !tbaa !3
  br label %20

20:                                               ; preds = %28, %2
  %21 = load i32, ptr %7, align 4, !tbaa !3
  %22 = icmp slt i32 %21, 6
  br i1 %22, label %24, label %23

23:                                               ; preds = %20
  call void @llvm.lifetime.end.p0(i64 4, ptr %7) #8
  br label %31

24:                                               ; preds = %20
  %25 = load i32, ptr %7, align 4, !tbaa !3
  %26 = load i32, ptr %5, align 4, !tbaa !3
  %27 = sext i32 %26 to i64
  call void @_ZN15ImSpanAllocatorILi6EE7ReserveEimi(ptr noundef nonnull align 8 dereferenceable(64) %6, i32 noundef %25, i64 noundef %27, i32 noundef 4)
  br label %28

28:                                               ; preds = %24
  %29 = load i32, ptr %7, align 4, !tbaa !3
  %30 = add nsw i32 %29, 1
  store i32 %30, ptr %7, align 4, !tbaa !3
  br label %20, !llvm.loop !349

31:                                               ; preds = %23
  %32 = call noundef i32 @_ZN15ImSpanAllocatorILi6EE19GetArenaSizeInBytesEv(ptr noundef nonnull align 8 dereferenceable(64) %6)
  %33 = sext i32 %32 to i64
  %34 = call noundef ptr @_ZN5ImGui8MemAllocEm(i64 noundef %33)
  %35 = load ptr, ptr %3, align 8, !tbaa !167
  %36 = getelementptr inbounds nuw %struct.ImGuiTable, ptr %35, i32 0, i32 2
  store ptr %34, ptr %36, align 8, !tbaa !268
  %37 = load ptr, ptr %3, align 8, !tbaa !167
  %38 = getelementptr inbounds nuw %struct.ImGuiTable, ptr %37, i32 0, i32 2
  %39 = load ptr, ptr %38, align 8, !tbaa !268
  %40 = call noundef i32 @_ZN15ImSpanAllocatorILi6EE19GetArenaSizeInBytesEv(ptr noundef nonnull align 8 dereferenceable(64) %6)
  %41 = sext i32 %40 to i64
  call void @llvm.memset.p0.i64(ptr align 1 %39, i8 0, i64 %41, i1 false)
  %42 = load ptr, ptr %3, align 8, !tbaa !167
  %43 = getelementptr inbounds nuw %struct.ImGuiTable, ptr %42, i32 0, i32 2
  %44 = load ptr, ptr %43, align 8, !tbaa !268
  call void @_ZN15ImSpanAllocatorILi6EE15SetArenaBasePtrEPv(ptr noundef nonnull align 8 dereferenceable(64) %6, ptr noundef %44)
  %45 = load ptr, ptr %3, align 8, !tbaa !167
  %46 = getelementptr inbounds nuw %struct.ImGuiTable, ptr %45, i32 0, i32 4
  call void @_ZN15ImSpanAllocatorILi6EE7GetSpanI16ImGuiTableColumnEEviP6ImSpanIT_E(ptr noundef nonnull align 8 dereferenceable(64) %6, i32 noundef 0, ptr noundef %46)
  %47 = load ptr, ptr %3, align 8, !tbaa !167
  %48 = getelementptr inbounds nuw %struct.ImGuiTable, ptr %47, i32 0, i32 5
  call void @_ZN15ImSpanAllocatorILi6EE7GetSpanIsEEviP6ImSpanIT_E(ptr noundef nonnull align 8 dereferenceable(64) %6, i32 noundef 1, ptr noundef %48)
  %49 = load ptr, ptr %3, align 8, !tbaa !167
  %50 = getelementptr inbounds nuw %struct.ImGuiTable, ptr %49, i32 0, i32 6
  call void @_ZN15ImSpanAllocatorILi6EE7GetSpanI18ImGuiTableCellDataEEviP6ImSpanIT_E(ptr noundef nonnull align 8 dereferenceable(64) %6, i32 noundef 2, ptr noundef %50)
  %51 = call noundef ptr @_ZN15ImSpanAllocatorILi6EE15GetSpanPtrBeginEi(ptr noundef nonnull align 8 dereferenceable(64) %6, i32 noundef 3)
  %52 = load ptr, ptr %3, align 8, !tbaa !167
  %53 = getelementptr inbounds nuw %struct.ImGuiTable, ptr %52, i32 0, i32 7
  store ptr %51, ptr %53, align 8, !tbaa !350
  %54 = call noundef ptr @_ZN15ImSpanAllocatorILi6EE15GetSpanPtrBeginEi(ptr noundef nonnull align 8 dereferenceable(64) %6, i32 noundef 4)
  %55 = load ptr, ptr %3, align 8, !tbaa !167
  %56 = getelementptr inbounds nuw %struct.ImGuiTable, ptr %55, i32 0, i32 8
  store ptr %54, ptr %56, align 8, !tbaa !351
  %57 = call noundef ptr @_ZN15ImSpanAllocatorILi6EE15GetSpanPtrBeginEi(ptr noundef nonnull align 8 dereferenceable(64) %6, i32 noundef 5)
  %58 = load ptr, ptr %3, align 8, !tbaa !167
  %59 = getelementptr inbounds nuw %struct.ImGuiTable, ptr %58, i32 0, i32 9
  store ptr %57, ptr %59, align 8, !tbaa !352
  call void @llvm.lifetime.end.p0(i64 64, ptr %6) #8
  call void @llvm.lifetime.end.p0(i64 4, ptr %5) #8
  ret void
}