; Function Attrs: mustprogress uwtable
define void @_ZN5ImGui20TableBeginInitMemoryEP10ImGuiTablei(ptr noundef captures(none) %0, i32 noundef %1) local_unnamed_addr #0 {
  %3 = alloca %struct.ImSpanAllocator, align 8
  %4 = add nsw i32 %1, 31
  call void @llvm.lifetime.start.p0(i64 64, ptr nonnull %3) #5
  %5 = mul i32 %1, 116
  %6 = getelementptr inbounds nuw i8, ptr %3, i64 16
  %7 = getelementptr inbounds nuw i8, ptr %3, i64 40
  %8 = getelementptr inbounds nuw i8, ptr %3, i64 16
  call void @llvm.memset.p0.i64(ptr noundef nonnull align 8 dereferenceable(48) %8, i8 0, i64 48, i1 false)
  store i32 %5, ptr %7, align 8, !tbaa !280
  %9 = shl i32 %1, 1
  %10 = getelementptr inbounds nuw i8, ptr %3, i64 20
  store i32 %5, ptr %10, align 4, !tbaa !280
  %11 = getelementptr inbounds nuw i8, ptr %3, i64 44
  store i32 %9, ptr %11, align 4, !tbaa !280
  %12 = shl i32 %1, 3
  %13 = add i32 %9, 3
  %14 = add i32 %13, %5
  %15 = and i32 %14, -4
  %16 = getelementptr inbounds nuw i8, ptr %3, i64 24
  store i32 %15, ptr %16, align 8, !tbaa !280
  %17 = getelementptr inbounds nuw i8, ptr %3, i64 48
  store i32 %12, ptr %17, align 8, !tbaa !280
  %18 = add nsw i32 %15, %12
  %19 = ashr i32 %4, 3
  %20 = and i32 %19, -4
  br label %62

21:                                               ; preds = %62
  %22 = sext i32 %68 to i64
  %23 = tail call noundef ptr @_ZN5ImGui8MemAllocEm(i64 noundef %22)
  %24 = getelementptr inbounds nuw i8, ptr %0, i64 8
  store ptr %23, ptr %24, align 8, !tbaa !279
  tail call void @llvm.memset.p0.i64(ptr align 1 %23, i8 0, i64 %22, i1 false)
  %25 = load ptr, ptr %24, align 8, !tbaa !279
  %26 = getelementptr inbounds nuw i8, ptr %0, i64 24
  %27 = load i32, ptr %7, align 8, !tbaa !280
  %28 = sext i32 %27 to i64
  %29 = getelementptr inbounds i8, ptr %25, i64 %28
  store ptr %25, ptr %26, align 8, !tbaa !278
  %30 = getelementptr inbounds nuw i8, ptr %0, i64 32
  store ptr %29, ptr %30, align 8, !tbaa !277
  %31 = getelementptr inbounds nuw i8, ptr %0, i64 40
  %32 = load i32, ptr %10, align 4, !tbaa !280
  %33 = sext i32 %32 to i64
  %34 = getelementptr inbounds i8, ptr %25, i64 %33
  %35 = load i32, ptr %11, align 4, !tbaa !280
  %36 = sext i32 %35 to i64
  %37 = getelementptr inbounds i8, ptr %34, i64 %36
  store ptr %34, ptr %31, align 8, !tbaa !282
  %38 = getelementptr inbounds nuw i8, ptr %0, i64 48
  store ptr %37, ptr %38, align 8, !tbaa !283
  %39 = getelementptr inbounds nuw i8, ptr %0, i64 56
  %40 = load i32, ptr %16, align 8, !tbaa !280
  %41 = sext i32 %40 to i64
  %42 = getelementptr inbounds i8, ptr %25, i64 %41
  %43 = load i32, ptr %17, align 8, !tbaa !280
  %44 = sext i32 %43 to i64
  %45 = getelementptr inbounds i8, ptr %42, i64 %44
  store ptr %42, ptr %39, align 8, !tbaa !284
  %46 = getelementptr inbounds nuw i8, ptr %0, i64 64
  store ptr %45, ptr %46, align 8, !tbaa !285
  %47 = getelementptr inbounds nuw i8, ptr %3, i64 28
  %48 = load i32, ptr %47, align 4, !tbaa !280
  %49 = sext i32 %48 to i64
  %50 = getelementptr inbounds i8, ptr %25, i64 %49
  %51 = getelementptr inbounds nuw i8, ptr %0, i64 72
  store ptr %50, ptr %51, align 8, !tbaa !286
  %52 = getelementptr inbounds nuw i8, ptr %3, i64 32
  %53 = load i32, ptr %52, align 8, !tbaa !280
  %54 = sext i32 %53 to i64
  %55 = getelementptr inbounds i8, ptr %25, i64 %54
  %56 = getelementptr inbounds nuw i8, ptr %0, i64 80
  store ptr %55, ptr %56, align 8, !tbaa !287
  %57 = getelementptr inbounds nuw i8, ptr %3, i64 36
  %58 = load i32, ptr %57, align 4, !tbaa !280
  %59 = sext i32 %58 to i64
  %60 = getelementptr inbounds i8, ptr %25, i64 %59
  %61 = getelementptr inbounds nuw i8, ptr %0, i64 88
  store ptr %60, ptr %61, align 8, !tbaa !288
  call void @llvm.lifetime.end.p0(i64 64, ptr nonnull %3) #5
  ret void

62:                                               ; preds = %2, %62
  %indvars.iv = phi i64 [ 3, %2 ], [ %indvars.iv.next, %62 ]
  %63 = phi i32 [ %18, %2 ], [ %68, %62 ]
  %64 = add nsw i32 %63, 3
  %65 = and i32 %64, -4
  %66 = getelementptr inbounds nuw [6 x i32], ptr %6, i64 0, i64 %indvars.iv
  store i32 %65, ptr %66, align 4, !tbaa !280
  %67 = getelementptr inbounds nuw [6 x i32], ptr %7, i64 0, i64 %indvars.iv
  store i32 %20, ptr %67, align 4, !tbaa !280
  %68 = add nsw i32 %65, %20
  %indvars.iv.next = add nuw nsw i64 %indvars.iv, 1
  %exitcond.not = icmp eq i64 %indvars.iv.next, 6
  br i1 %exitcond.not, label %21, label %62, !llvm.loop !281
}